target datalayout = "e-m:e-p270:32:32-p271:32:32-p272:64:64-i64:64-i128:128-f80:128-n8:16:32:64-S128"
target triple = "x86_64-pc-linux-gnu"

%"class.cvc5::internal::FloatingPointSize" = type { i32, i32 }
%"class.cvc5::internal::symfpuLiteral::wrappedBitVector.0" = type { %"class.cvc5::internal::BitVector" }
%"class.cvc5::internal::BitVector" = type { i32, %"class.cvc5::internal::Integer" }
%"class.cvc5::internal::Integer" = type { %class.__gmp_expr }
%class.__gmp_expr = type { [1 x %struct.__mpz_struct] }
%struct.__mpz_struct = type { i32, i32, ptr }
%"class.cvc5::internal::FloatingPointLiteral" = type { %"class.cvc5::internal::FloatingPointSize", %"class.symfpu::unpackedFloat" }
%"class.symfpu::unpackedFloat" = type { i8, i8, i8, i8, %"class.cvc5::internal::symfpuLiteral::wrappedBitVector", %"class.cvc5::internal::symfpuLiteral::wrappedBitVector.0" }
%"class.cvc5::internal::symfpuLiteral::wrappedBitVector" = type { %"class.cvc5::internal::BitVector" }

; Function Attrs: mustprogress uwtable
define hidden void @_ZN4cvc58internal20FloatingPointLiteralC2ERKNS0_17FloatingPointSizeENS1_16SpecialConstKindEb(ptr noundef nonnull align 8 dereferenceable(64) %0, ptr noundef nonnull align 4 dereferenceable(8) %1, i32 noundef %2, i1 noundef zeroext %3) unnamed_addr #4 align 2 {
  %5 = alloca ptr, align 8
  %6 = alloca ptr, align 8
  %7 = alloca i32, align 4
  %8 = alloca i8, align 1
  store ptr %0, ptr %5, align 8, !tbaa !10
  store ptr %1, ptr %6, align 8, !tbaa !3
  store i32 %2, ptr %7, align 4, !tbaa !22
  %9 = zext i1 %3 to i8
  store i8 %9, ptr %8, align 1, !tbaa !16
  %10 = load ptr, ptr %5, align 8
  %11 = getelementptr inbounds nuw %"class.cvc5::internal::FloatingPointLiteral", ptr %10, i32 0, i32 0
  %12 = load ptr, ptr %6, align 8, !tbaa !3
  call void @_ZN4cvc58internal17FloatingPointSizeC1ERKS1_(ptr noundef nonnull align 4 dereferenceable(8) %11, ptr noundef nonnull align 4 dereferenceable(8) %12)
  %13 = getelementptr inbounds nuw %"class.cvc5::internal::FloatingPointLiteral", ptr %10, i32 0, i32 1
  %14 = load i32, ptr %7, align 4, !tbaa !22
  %15 = icmp eq i32 %14, 0
  br i1 %15, label %16, label %18

16:                                               ; preds = %4
  %17 = load ptr, ptr %6, align 8, !tbaa !3
  call void @_ZN6symfpu13unpackedFloatIN4cvc58internal13symfpuLiteral6traitsEE7makeInfERKNS2_17FloatingPointSizeERKb(ptr dead_on_unwind writable sret(%"class.symfpu::unpackedFloat") align 8 %13, ptr noundef nonnull align 4 dereferenceable(8) %17, ptr noundef nonnull align 1 dereferenceable(1) %8)
  br label %20

18:                                               ; preds = %4
  %19 = load ptr, ptr %6, align 8, !tbaa !3
  call void @_ZN6symfpu13unpackedFloatIN4cvc58internal13symfpuLiteral6traitsEE8makeZeroERKNS2_17FloatingPointSizeERKb(ptr dead_on_unwind writable sret(%"class.symfpu::unpackedFloat") align 8 %13, ptr noundef nonnull align 4 dereferenceable(8) %19, ptr noundef nonnull align 1 dereferenceable(1) %8)
  br label %20

20:                                               ; preds = %18, %16
  ret void
}