; Function Attrs: mustprogress uwtable
define hidden void @_ZN4cvc58internal20FloatingPointLiteralC2ERKNS0_17FloatingPointSizeENS1_16SpecialConstKindEb(ptr noundef nonnull align 8 dereferenceable(64) %0, ptr noundef nonnull align 4 dereferenceable(8) %1, i32 noundef %2, i1 noundef zeroext %3) unnamed_addr #4 align 2 {
  %5 = alloca i8, align 1
  %6 = zext i1 %3 to i8
  store i8 %6, ptr %5, align 1, !tbaa !13
  tail call void @_ZN4cvc58internal17FloatingPointSizeC1ERKS1_(ptr noundef nonnull align 4 dereferenceable(8) %0, ptr noundef nonnull align 4 dereferenceable(8) %1)
  %7 = getelementptr inbounds nuw i8, ptr %0, i64 8
  %8 = icmp eq i32 %2, 0
  br i1 %8, label %9, label %10

9:                                                ; preds = %4
  call void @_ZN6symfpu13unpackedFloatIN4cvc58internal13symfpuLiteral6traitsEE7makeInfERKNS2_17FloatingPointSizeERKb(ptr dead_on_unwind nonnull writable sret(%"class.symfpu::unpackedFloat") align 8 %7, ptr noundef nonnull align 4 dereferenceable(8) %1, ptr noundef nonnull align 1 dereferenceable(1) %5)
  br label %11

10:                                               ; preds = %4
  call void @_ZN6symfpu13unpackedFloatIN4cvc58internal13symfpuLiteral6traitsEE8makeZeroERKNS2_17FloatingPointSizeERKb(ptr dead_on_unwind nonnull writable sret(%"class.symfpu::unpackedFloat") align 8 %7, ptr noundef nonnull align 4 dereferenceable(8) %1, ptr noundef nonnull align 1 dereferenceable(1) %5)
  br label %11

11:                                               ; preds = %10, %9
  ret void
}